; Function Attrs: nounwind uwtable
define internal void @_abcmodule_free(ptr noundef readonly captures(none) %0) #0 {
  %2 = getelementptr i8, ptr %0, i64 32
  %.val.i = load ptr, ptr %2, align 8, !tbaa !4
  %3 = load ptr, ptr %.val.i, align 8, !tbaa !16
  %.not.i = icmp eq ptr %3, null
  br i1 %.not.i, label %_abcmodule_clear.exit, label %4

4:                                                ; preds = %1
  store ptr null, ptr %.val.i, align 8, !tbaa !16
  %5 = load i32, ptr %3, align 8, !tbaa !17
  %.not.i.i = icmp sgt i32 %5, -1
  br i1 %.not.i.i, label %6, label %_abcmodule_clear.exit

6:                                                ; preds = %4
  %7 = add nsw i32 %5, -1
  store i32 %7, ptr %3, align 8, !tbaa !17
  %8 = icmp eq i32 %7, 0
  br i1 %8, label %9, label %_abcmodule_clear.exit

9:                                                ; preds = %6
  tail call void @_Py_Dealloc(ptr noundef nonnull %3) #4
  br label %_abcmodule_clear.exit

_abcmodule_clear.exit:                            ; preds = %1, %4, %6, %9
  ret void
}